target datalayout = "e-m:e-p270:32:32-p271:32:32-p272:64:64-i64:64-i128:128-f80:128-n8:16:32:64-S128"
target triple = "x86_64-pc-linux-gnu"

%struct.Complex = type { double, double }
%struct.Qureg = type { i32, i32, i32, i64, i64, i32, i32, %struct.ComplexArray, %struct.ComplexArray, %struct.ComplexArray, ptr, ptr, ptr, ptr, ptr, ptr }
%struct.ComplexArray = type { ptr, ptr }

; Function Attrs: nounwind uwtable
define i64 @getQubitBitMask(ptr noundef %0, i32 noundef %1) #0 {
  %3 = alloca ptr, align 8
  %4 = alloca i32, align 4
  %5 = alloca i64, align 8
  %6 = alloca i32, align 4
  store ptr %0, ptr %3, align 8, !tbaa !4
  store i32 %1, ptr %4, align 4, !tbaa !9
  call void @llvm.lifetime.start.p0(i64 8, ptr %5) #8
  store i64 0, ptr %5, align 8, !tbaa !11
  call void @llvm.lifetime.start.p0(i64 4, ptr %6) #8
  store i32 0, ptr %6, align 4, !tbaa !9
  br label %7

7:                                                ; preds = %22, %2
  %8 = load i32, ptr %6, align 4, !tbaa !9
  %9 = load i32, ptr %4, align 4, !tbaa !9
  %10 = icmp slt i32 %8, %9
  br i1 %10, label %12, label %11

11:                                               ; preds = %7
  call void @llvm.lifetime.end.p0(i64 4, ptr %6) #8
  br label %25

12:                                               ; preds = %7
  %13 = load i64, ptr %5, align 8, !tbaa !11
  %14 = load ptr, ptr %3, align 8, !tbaa !4
  %15 = load i32, ptr %6, align 4, !tbaa !9
  %16 = sext i32 %15 to i64
  %17 = getelementptr inbounds i32, ptr %14, i64 %16
  %18 = load i32, ptr %17, align 4, !tbaa !9
  %19 = zext i32 %18 to i64
  %20 = shl i64 1, %19
  %21 = or i64 %13, %20
  store i64 %21, ptr %5, align 8, !tbaa !11
  br label %22

22:                                               ; preds = %12
  %23 = load i32, ptr %6, align 4, !tbaa !9
  %24 = add nsw i32 %23, 1
  store i32 %24, ptr %6, align 4, !tbaa !9
  br label %7

25:                                               ; preds = %11
  %26 = load i64, ptr %5, align 8, !tbaa !11
  call void @llvm.lifetime.end.p0(i64 8, ptr %5) #8
  ret i64 %26
}

; Function Attrs: nounwind uwtable
define void @statevec_multiRotatePauli(ptr noundef byval(%struct.Qureg) align 8 %0, ptr noundef %1, ptr noundef %2, i32 noundef %3, double noundef %4, i32 noundef %5) #0 {
  %7 = alloca ptr, align 8
  %8 = alloca ptr, align 8
  %9 = alloca i32, align 4
  %10 = alloca double, align 8
  %11 = alloca i32, align 4
  %12 = alloca double, align 8
  %13 = alloca %struct.Complex, align 8
  %14 = alloca %struct.Complex, align 8
  %15 = alloca %struct.Complex, align 8
  %16 = alloca %struct.Complex, align 8
  %17 = alloca i64, align 8
  %18 = alloca i32, align 4
  %19 = alloca i32, align 4
  store ptr %1, ptr %7, align 8, !tbaa !4
  store ptr %2, ptr %8, align 8, !tbaa !52
  store i32 %3, ptr %9, align 4, !tbaa !9
  store double %4, ptr %10, align 8, !tbaa !18
  store i32 %5, ptr %11, align 4, !tbaa !9
  call void @llvm.lifetime.start.p0(i64 8, ptr %12) #8
  %20 = call double @sqrt(double noundef 2.000000e+00) #8, !tbaa !9
  %21 = fdiv double 1.000000e+00, %20
  store double %21, ptr %12, align 8, !tbaa !18
  call void @llvm.lifetime.start.p0(i64 16, ptr %13) #8
  %22 = getelementptr inbounds nuw %struct.Complex, ptr %13, i32 0, i32 0
  %23 = load double, ptr %12, align 8, !tbaa !18
  store double %23, ptr %22, align 8, !tbaa !19
  %24 = getelementptr inbounds nuw %struct.Complex, ptr %13, i32 0, i32 1
  store double 0.000000e+00, ptr %24, align 8, !tbaa !21
  call void @llvm.lifetime.start.p0(i64 16, ptr %14) #8
  %25 = getelementptr inbounds nuw %struct.Complex, ptr %14, i32 0, i32 0
  store double 0.000000e+00, ptr %25, align 8, !tbaa !19
  %26 = getelementptr inbounds nuw %struct.Complex, ptr %14, i32 0, i32 1
  %27 = load i32, ptr %11, align 4, !tbaa !9
  %28 = icmp ne i32 %27, 0
  br i1 %28, label %29, label %31

29:                                               ; preds = %6
  %30 = load double, ptr %12, align 8, !tbaa !18
  br label %34

31:                                               ; preds = %6
  %32 = load double, ptr %12, align 8, !tbaa !18
  %33 = fneg double %32
  br label %34

34:                                               ; preds = %31, %29
  %35 = phi double [ %30, %29 ], [ %33, %31 ]
  store double %35, ptr %26, align 8, !tbaa !21
  call void @llvm.lifetime.start.p0(i64 16, ptr %15) #8
  %36 = getelementptr inbounds nuw %struct.Complex, ptr %15, i32 0, i32 0
  %37 = load double, ptr %12, align 8, !tbaa !18
  store double %37, ptr %36, align 8, !tbaa !19
  %38 = getelementptr inbounds nuw %struct.Complex, ptr %15, i32 0, i32 1
  store double 0.000000e+00, ptr %38, align 8, !tbaa !21
  call void @llvm.lifetime.start.p0(i64 16, ptr %16) #8
  %39 = getelementptr inbounds nuw %struct.Complex, ptr %16, i32 0, i32 0
  %40 = load double, ptr %12, align 8, !tbaa !18
  %41 = fneg double %40
  store double %41, ptr %39, align 8, !tbaa !19
  %42 = getelementptr inbounds nuw %struct.Complex, ptr %16, i32 0, i32 1
  store double 0.000000e+00, ptr %42, align 8, !tbaa !21
  call void @llvm.lifetime.start.p0(i64 8, ptr %17) #8
  %43 = load ptr, ptr %7, align 8, !tbaa !4
  %44 = load i32, ptr %9, align 4, !tbaa !9
  %45 = call i64 @getQubitBitMask(ptr noundef %43, i32 noundef %44)
  store i64 %45, ptr %17, align 8, !tbaa !11
  call void @llvm.lifetime.start.p0(i64 4, ptr %18) #8
  store i32 0, ptr %18, align 4, !tbaa !9
  br label %46

46:                                               ; preds = %111, %34
  %47 = load i32, ptr %18, align 4, !tbaa !9
  %48 = load i32, ptr %9, align 4, !tbaa !9
  %49 = icmp slt i32 %47, %48
  br i1 %49, label %51, label %50

50:                                               ; preds = %46
  call void @llvm.lifetime.end.p0(i64 4, ptr %18) #8
  br label %114

51:                                               ; preds = %46
  %52 = load ptr, ptr %8, align 8, !tbaa !52
  %53 = load i32, ptr %18, align 4, !tbaa !9
  %54 = sext i32 %53 to i64
  %55 = getelementptr inbounds i32, ptr %52, i64 %54
  %56 = load i32, ptr %55, align 4, !tbaa !9
  %57 = icmp eq i32 %56, 0
  br i1 %57, label %58, label %68

58:                                               ; preds = %51
  %59 = load ptr, ptr %7, align 8, !tbaa !4
  %60 = load i32, ptr %18, align 4, !tbaa !9
  %61 = sext i32 %60 to i64
  %62 = getelementptr inbounds i32, ptr %59, i64 %61
  %63 = load i32, ptr %62, align 4, !tbaa !9
  %64 = zext i32 %63 to i64
  %65 = shl i64 1, %64
  %66 = load i64, ptr %17, align 8, !tbaa !11
  %67 = sub nsw i64 %66, %65
  store i64 %67, ptr %17, align 8, !tbaa !11
  br label %68

68:                                               ; preds = %58, %51
  %69 = load ptr, ptr %8, align 8, !tbaa !52
  %70 = load i32, ptr %18, align 4, !tbaa !9
  %71 = sext i32 %70 to i64
  %72 = getelementptr inbounds i32, ptr %69, i64 %71
  %73 = load i32, ptr %72, align 4, !tbaa !9
  %74 = icmp eq i32 %73, 1
  br i1 %74, label %75, label %89

75:                                               ; preds = %68
  %76 = load ptr, ptr %7, align 8, !tbaa !4
  %77 = load i32, ptr %18, align 4, !tbaa !9
  %78 = sext i32 %77 to i64
  %79 = getelementptr inbounds i32, ptr %76, i64 %78
  %80 = load i32, ptr %79, align 4, !tbaa !9
  %81 = getelementptr inbounds nuw { double, double }, ptr %15, i32 0, i32 0
  %82 = load double, ptr %81, align 8
  %83 = getelementptr inbounds nuw { double, double }, ptr %15, i32 0, i32 1
  %84 = load double, ptr %83, align 8
  %85 = getelementptr inbounds nuw { double, double }, ptr %16, i32 0, i32 0
  %86 = load double, ptr %85, align 8
  %87 = getelementptr inbounds nuw { double, double }, ptr %16, i32 0, i32 1
  %88 = load double, ptr %87, align 8
  call void @statevec_compactUnitary(ptr noundef byval(%struct.Qureg) align 8 %0, i32 noundef %80, double %82, double %84, double %86, double %88)
  br label %89

89:                                               ; preds = %75, %68
  %90 = load ptr, ptr %8, align 8, !tbaa !52
  %91 = load i32, ptr %18, align 4, !tbaa !9
  %92 = sext i32 %91 to i64
  %93 = getelementptr inbounds i32, ptr %90, i64 %92
  %94 = load i32, ptr %93, align 4, !tbaa !9
  %95 = icmp eq i32 %94, 2
  br i1 %95, label %96, label %110

96:                                               ; preds = %89
  %97 = load ptr, ptr %7, align 8, !tbaa !4
  %98 = load i32, ptr %18, align 4, !tbaa !9
  %99 = sext i32 %98 to i64
  %100 = getelementptr inbounds i32, ptr %97, i64 %99
  %101 = load i32, ptr %100, align 4, !tbaa !9
  %102 = getelementptr inbounds nuw { double, double }, ptr %13, i32 0, i32 0
  %103 = load double, ptr %102, align 8
  %104 = getelementptr inbounds nuw { double, double }, ptr %13, i32 0, i32 1
  %105 = load double, ptr %104, align 8
  %106 = getelementptr inbounds nuw { double, double }, ptr %14, i32 0, i32 0
  %107 = load double, ptr %106, align 8
  %108 = getelementptr inbounds nuw { double, double }, ptr %14, i32 0, i32 1
  %109 = load double, ptr %108, align 8
  call void @statevec_compactUnitary(ptr noundef byval(%struct.Qureg) align 8 %0, i32 noundef %101, double %103, double %105, double %107, double %109)
  br label %110

110:                                              ; preds = %96, %89
  br label %111

111:                                              ; preds = %110
  %112 = load i32, ptr %18, align 4, !tbaa !9
  %113 = add nsw i32 %112, 1
  store i32 %113, ptr %18, align 4, !tbaa !9
  br label %46

114:                                              ; preds = %50
  %115 = load i64, ptr %17, align 8, !tbaa !11
  %116 = icmp ne i64 %115, 0
  br i1 %116, label %117, label %128

117:                                              ; preds = %114
  %118 = load i64, ptr %17, align 8, !tbaa !11
  %119 = load i32, ptr %11, align 4, !tbaa !9
  %120 = icmp ne i32 %119, 0
  br i1 %120, label %121, label %124

121:                                              ; preds = %117
  %122 = load double, ptr %10, align 8, !tbaa !18
  %123 = fneg double %122
  br label %126

124:                                              ; preds = %117
  %125 = load double, ptr %10, align 8, !tbaa !18
  br label %126

126:                                              ; preds = %124, %121
  %127 = phi double [ %123, %121 ], [ %125, %124 ]
  call void @statevec_multiRotateZ(ptr noundef byval(%struct.Qureg) align 8 %0, i64 noundef %118, double noundef %127)
  br label %128

128:                                              ; preds = %126, %114
  %129 = getelementptr inbounds nuw %struct.Complex, ptr %14, i32 0, i32 1
  %130 = load double, ptr %129, align 8, !tbaa !21
  %131 = fmul double %130, -1.000000e+00
  store double %131, ptr %129, align 8, !tbaa !21
  %132 = getelementptr inbounds nuw %struct.Complex, ptr %16, i32 0, i32 0
  %133 = load double, ptr %132, align 8, !tbaa !19
  %134 = fmul double %133, -1.000000e+00
  store double %134, ptr %132, align 8, !tbaa !19
  call void @llvm.lifetime.start.p0(i64 4, ptr %19) #8
  store i32 0, ptr %19, align 4, !tbaa !9
  br label %135

135:                                              ; preds = %183, %128
  %136 = load i32, ptr %19, align 4, !tbaa !9
  %137 = load i32, ptr %9, align 4, !tbaa !9
  %138 = icmp slt i32 %136, %137
  br i1 %138, label %140, label %139

139:                                              ; preds = %135
  call void @llvm.lifetime.end.p0(i64 4, ptr %19) #8
  br label %186

140:                                              ; preds = %135
  %141 = load ptr, ptr %8, align 8, !tbaa !52
  %142 = load i32, ptr %19, align 4, !tbaa !9
  %143 = sext i32 %142 to i64
  %144 = getelementptr inbounds i32, ptr %141, i64 %143
  %145 = load i32, ptr %144, align 4, !tbaa !9
  %146 = icmp eq i32 %145, 1
  br i1 %146, label %147, label %161

147:                                              ; preds = %140
  %148 = load ptr, ptr %7, align 8, !tbaa !4
  %149 = load i32, ptr %19, align 4, !tbaa !9
  %150 = sext i32 %149 to i64
  %151 = getelementptr inbounds i32, ptr %148, i64 %150
  %152 = load i32, ptr %151, align 4, !tbaa !9
  %153 = getelementptr inbounds nuw { double, double }, ptr %15, i32 0, i32 0
  %154 = load double, ptr %153, align 8
  %155 = getelementptr inbounds nuw { double, double }, ptr %15, i32 0, i32 1
  %156 = load double, ptr %155, align 8
  %157 = getelementptr inbounds nuw { double, double }, ptr %16, i32 0, i32 0
  %158 = load double, ptr %157, align 8
  %159 = getelementptr inbounds nuw { double, double }, ptr %16, i32 0, i32 1
  %160 = load double, ptr %159, align 8
  call void @statevec_compactUnitary(ptr noundef byval(%struct.Qureg) align 8 %0, i32 noundef %152, double %154, double %156, double %158, double %160)
  br label %161

161:                                              ; preds = %147, %140
  %162 = load ptr, ptr %8, align 8, !tbaa !52
  %163 = load i32, ptr %19, align 4, !tbaa !9
  %164 = sext i32 %163 to i64
  %165 = getelementptr inbounds i32, ptr %162, i64 %164
  %166 = load i32, ptr %165, align 4, !tbaa !9
  %167 = icmp eq i32 %166, 2
  br i1 %167, label %168, label %182

168:                                              ; preds = %161
  %169 = load ptr, ptr %7, align 8, !tbaa !4
  %170 = load i32, ptr %19, align 4, !tbaa !9
  %171 = sext i32 %170 to i64
  %172 = getelementptr inbounds i32, ptr %169, i64 %171
  %173 = load i32, ptr %172, align 4, !tbaa !9
  %174 = getelementptr inbounds nuw { double, double }, ptr %13, i32 0, i32 0
  %175 = load double, ptr %174, align 8
  %176 = getelementptr inbounds nuw { double, double }, ptr %13, i32 0, i32 1
  %177 = load double, ptr %176, align 8
  %178 = getelementptr inbounds nuw { double, double }, ptr %14, i32 0, i32 0
  %179 = load double, ptr %178, align 8
  %180 = getelementptr inbounds nuw { double, double }, ptr %14, i32 0, i32 1
  %181 = load double, ptr %180, align 8
  call void @statevec_compactUnitary(ptr noundef byval(%struct.Qureg) align 8 %0, i32 noundef %173, double %175, double %177, double %179, double %181)
  br label %182

182:                                              ; preds = %168, %161
  br label %183

183:                                              ; preds = %182
  %184 = load i32, ptr %19, align 4, !tbaa !9
  %185 = add nsw i32 %184, 1
  store i32 %185, ptr %19, align 4, !tbaa !9
  br label %135

186:                                              ; preds = %139
  call void @llvm.lifetime.end.p0(i64 8, ptr %17) #8
  call void @llvm.lifetime.end.p0(i64 16, ptr %16) #8
  call void @llvm.lifetime.end.p0(i64 16, ptr %15) #8
  call void @llvm.lifetime.end.p0(i64 16, ptr %14) #8
  call void @llvm.lifetime.end.p0(i64 16, ptr %13) #8
  call void @llvm.lifetime.end.p0(i64 8, ptr %12) #8
  ret void
}