; Function Attrs: nounwind uwtable
define void @statevec_multiRotatePauli(ptr noundef readonly byval(%struct.Qureg) align 8 captures(none) %0, ptr noundef readonly captures(none) %1, ptr noundef readonly captures(none) %2, i32 noundef %3, double noundef %4, i32 noundef %5) local_unnamed_addr #11 {
  %.not = icmp eq i32 %5, 0
  %7 = select i1 %.not, double 0xBFE6A09E667F3BCC, double 0x3FE6A09E667F3BCC
  %8 = icmp sgt i32 %3, 0
  br i1 %8, label %.lr.ph.preheader.i, label %._crit_edge66

.lr.ph.preheader.i:                               ; preds = %6
  %wide.trip.count.i = zext nneg i32 %3 to i64
  br label %.lr.ph.i

.lr.ph.i:                                         ; preds = %.lr.ph.i, %.lr.ph.preheader.i
  %indvars.iv.i = phi i64 [ 0, %.lr.ph.preheader.i ], [ %indvars.iv.next.i, %.lr.ph.i ]
  %.067.i = phi i64 [ 0, %.lr.ph.preheader.i ], [ %13, %.lr.ph.i ]
  %9 = getelementptr inbounds nuw i32, ptr %1, i64 %indvars.iv.i
  %10 = load i32, ptr %9, align 4, !tbaa !4
  %11 = zext nneg i32 %10 to i64
  %12 = shl nuw i64 1, %11
  %13 = or i64 %12, %.067.i
  %indvars.iv.next.i = add nuw nsw i64 %indvars.iv.i, 1
  %exitcond.not.i = icmp eq i64 %indvars.iv.next.i, %wide.trip.count.i
  br i1 %exitcond.not.i, label %.lr.ph.preheader, label %.lr.ph.i

.lr.ph.preheader:                                 ; preds = %.lr.ph.i
  %wide.trip.count = zext nneg i32 %3 to i64
  br label %.lr.ph

._crit_edge:                                      ; preds = %28
  %.not57 = icmp eq i64 %.15979, 0
  br i1 %.not57, label %.lr.ph65.preheader, label %29

.lr.ph:                                           ; preds = %.lr.ph.preheader, %28
  %indvars.iv = phi i64 [ 0, %.lr.ph.preheader ], [ %indvars.iv.next, %28 ]
  %.05561 = phi i64 [ %13, %.lr.ph.preheader ], [ %.15979, %28 ]
  %14 = getelementptr inbounds nuw i32, ptr %2, i64 %indvars.iv
  %15 = load i32, ptr %14, align 4, !tbaa !4
  switch i32 %15, label %thread-pre-split [
    i32 0, label %thread-pre-split.thread
    i32 1, label %20
  ]

thread-pre-split.thread:                          ; preds = %.lr.ph
  %16 = getelementptr inbounds nuw i32, ptr %1, i64 %indvars.iv
  %17 = load i32, ptr %16, align 4, !tbaa !4
  %18 = zext nneg i32 %17 to i64
  %.neg = shl nsw i64 -1, %18
  %19 = add i64 %.neg, %.05561
  br label %28

20:                                               ; preds = %.lr.ph
  %21 = getelementptr inbounds nuw i32, ptr %1, i64 %indvars.iv
  %22 = load i32, ptr %21, align 4, !tbaa !4
  tail call void @statevec_compactUnitary(ptr noundef nonnull byval(%struct.Qureg) align 8 %0, i32 noundef %22, double 0x3FE6A09E667F3BCC, double 0.000000e+00, double 0xBFE6A09E667F3BCC, double 0.000000e+00) #22
  %.pr.pre = load i32, ptr %14, align 4, !tbaa !4
  br label %thread-pre-split

thread-pre-split:                                 ; preds = %20, %.lr.ph
  %23 = phi i32 [ %15, %.lr.ph ], [ %.pr.pre, %20 ]
  %24 = icmp eq i32 %23, 2
  br i1 %24, label %25, label %28

25:                                               ; preds = %thread-pre-split
  %26 = getelementptr inbounds nuw i32, ptr %1, i64 %indvars.iv
  %27 = load i32, ptr %26, align 4, !tbaa !4
  tail call void @statevec_compactUnitary(ptr noundef nonnull byval(%struct.Qureg) align 8 %0, i32 noundef %27, double 0x3FE6A09E667F3BCC, double 0.000000e+00, double 0.000000e+00, double %7) #22
  br label %28

28:                                               ; preds = %thread-pre-split.thread, %thread-pre-split, %25
  %.15979 = phi i64 [ %19, %thread-pre-split.thread ], [ %.05561, %thread-pre-split ], [ %.05561, %25 ]
  %indvars.iv.next = add nuw nsw i64 %indvars.iv, 1
  %exitcond.not = icmp eq i64 %indvars.iv.next, %wide.trip.count
  br i1 %exitcond.not, label %._crit_edge, label %.lr.ph

29:                                               ; preds = %._crit_edge
  %30 = fneg double %4
  %31 = select i1 %.not, double %4, double %30
  tail call void @statevec_multiRotateZ(ptr noundef nonnull byval(%struct.Qureg) align 8 %0, i64 noundef %.15979, double noundef %31) #22
  br label %.lr.ph65.preheader

.lr.ph65.preheader:                               ; preds = %29, %._crit_edge
  %32 = fneg double %7
  %wide.trip.count71 = zext nneg i32 %3 to i64
  br label %.lr.ph65

._crit_edge66:                                    ; preds = %45, %6
  ret void

.lr.ph65:                                         ; preds = %.lr.ph65.preheader, %45
  %indvars.iv68 = phi i64 [ 0, %.lr.ph65.preheader ], [ %indvars.iv.next69, %45 ]
  %33 = getelementptr inbounds nuw i32, ptr %2, i64 %indvars.iv68
  %34 = load i32, ptr %33, align 4, !tbaa !4
  %35 = icmp eq i32 %34, 1
  br i1 %35, label %36, label %39

36:                                               ; preds = %.lr.ph65
  %37 = getelementptr inbounds nuw i32, ptr %1, i64 %indvars.iv68
  %38 = load i32, ptr %37, align 4, !tbaa !4
  tail call void @statevec_compactUnitary(ptr noundef nonnull byval(%struct.Qureg) align 8 %0, i32 noundef %38, double 0x3FE6A09E667F3BCC, double 0.000000e+00, double 0x3FE6A09E667F3BCC, double 0.000000e+00) #22
  %.pr60 = load i32, ptr %33, align 4, !tbaa !4
  br label %39

39:                                               ; preds = %36, %.lr.ph65
  %40 = phi i32 [ %.pr60, %36 ], [ %34, %.lr.ph65 ]
  %41 = icmp eq i32 %40, 2
  br i1 %41, label %42, label %45

42:                                               ; preds = %39
  %43 = getelementptr inbounds nuw i32, ptr %1, i64 %indvars.iv68
  %44 = load i32, ptr %43, align 4, !tbaa !4
  tail call void @statevec_compactUnitary(ptr noundef nonnull byval(%struct.Qureg) align 8 %0, i32 noundef %44, double 0x3FE6A09E667F3BCC, double 0.000000e+00, double 0.000000e+00, double %32) #22
  br label %45

45:                                               ; preds = %39, %42
  %indvars.iv.next69 = add nuw nsw i64 %indvars.iv68, 1
  %exitcond72.not = icmp eq i64 %indvars.iv.next69, %wide.trip.count71
  br i1 %exitcond72.not, label %._crit_edge66, label %.lr.ph65
}